; Function Attrs: nounwind uwtable
define hidden void @zif_http_clear_last_response_headers(ptr nocapture noundef readonly %0, ptr nocapture noundef readnone %1) local_unnamed_addr #0 {
  %3 = getelementptr inbounds i8, ptr %0, i64 44
  %4 = load i32, ptr %3, align 4
  %.not = icmp eq i32 %4, 0
  br i1 %.not, label %.critedge, label %5

5:                                                ; preds = %2
  tail call void @zend_wrong_parameters_none_error() #10
  %6 = load ptr, ptr getelementptr inbounds (%struct._zend_executor_globals, ptr @executor_globals, i64 0, i32 50), align 8
  %7 = icmp ne ptr %6, null
  tail call void @llvm.assume(i1 %7)
  br label %8

.critedge:                                        ; preds = %2
  tail call void @zval_ptr_dtor(ptr noundef nonnull getelementptr inbounds (%struct._php_basic_globals, ptr @basic_globals, i64 0, i32 12)) #10
  store i32 0, ptr getelementptr inbounds (%struct._php_basic_globals, ptr @basic_globals, i64 0, i32 12, i32 1), align 8
  br label %8

8:                                                ; preds = %.critedge, %5
  ret void
}